; Function Attrs: mustprogress nounwind uwtable
define void @_ZN32pxrInternal_v0_24__pxrReserved__11PcpLifeboatD2Ev(ptr noundef nonnull align 8 dereferenceable(96) %0) unnamed_addr #4 align 2 personality ptr @__gxx_personality_v0 {
  %2 = getelementptr inbounds nuw i8, ptr %0, i64 48
  %3 = getelementptr inbounds i8, ptr %0, i64 64
  %4 = load ptr, ptr %3, align 8
  invoke void @_ZNSt8_Rb_treeIN32pxrInternal_v0_24__pxrReserved__8TfRefPtrINS0_13PcpLayerStackEEES3_St9_IdentityIS3_ESt4lessIS3_ESaIS3_EE8_M_eraseEPSt13_Rb_tree_nodeIS3_E(ptr noundef nonnull align 8 dereferenceable(48) %2, ptr noundef %4)
          to label %_ZNSt3setIN32pxrInternal_v0_24__pxrReserved__8TfRefPtrINS0_13PcpLayerStackEEESt4lessIS3_ESaIS3_EED2Ev.exit unwind label %5

5:                                                ; preds = %1
  %6 = landingpad { ptr, i32 }
          catch ptr null
  %7 = extractvalue { ptr, i32 } %6, 0
  tail call void @__clang_call_terminate(ptr %7) #24
  unreachable

_ZNSt3setIN32pxrInternal_v0_24__pxrReserved__8TfRefPtrINS0_13PcpLayerStackEEESt4lessIS3_ESaIS3_EED2Ev.exit: ; preds = %1
  %8 = getelementptr inbounds i8, ptr %0, i64 16
  %9 = load ptr, ptr %8, align 8
  invoke void @_ZNSt8_Rb_treeIN32pxrInternal_v0_24__pxrReserved__8TfRefPtrINS0_8SdfLayerEEES3_St9_IdentityIS3_ESt4lessIS3_ESaIS3_EE8_M_eraseEPSt13_Rb_tree_nodeIS3_E(ptr noundef nonnull align 8 dereferenceable(48) %0, ptr noundef %9)
          to label %_ZNSt3setIN32pxrInternal_v0_24__pxrReserved__8TfRefPtrINS0_8SdfLayerEEESt4lessIS3_ESaIS3_EED2Ev.exit unwind label %10

10:                                               ; preds = %_ZNSt3setIN32pxrInternal_v0_24__pxrReserved__8TfRefPtrINS0_13PcpLayerStackEEESt4lessIS3_ESaIS3_EED2Ev.exit
  %11 = landingpad { ptr, i32 }
          catch ptr null
  %12 = extractvalue { ptr, i32 } %11, 0
  tail call void @__clang_call_terminate(ptr %12) #24
  unreachable

_ZNSt3setIN32pxrInternal_v0_24__pxrReserved__8TfRefPtrINS0_8SdfLayerEEESt4lessIS3_ESaIS3_EED2Ev.exit: ; preds = %_ZNSt3setIN32pxrInternal_v0_24__pxrReserved__8TfRefPtrINS0_13PcpLayerStackEEESt4lessIS3_ESaIS3_EED2Ev.exit
  ret void
}